target datalayout = "e-m:e-p270:32:32-p271:32:32-p272:64:64-i64:64-i128:128-f80:128-n8:16:32:64-S128"
target triple = "x86_64-pc-linux-gnu"

%struct.color_s = type { %union.anon.0, i32 }
%union.anon.0 = type { [4 x double] }

@figcolor = internal global [9 x ptr] [ptr @.str.21, ptr @.str.22, ptr @.str.23, ptr @.str.24, ptr @.str.25, ptr @.str.26, ptr @.str.27, ptr @.str.28, ptr null], align 16
@.str.18 = private unnamed_addr constant [21 x i8] c"%d %d #%02x%02x%02x\0A\00", align 1
@stderr = external global ptr, align 8
@.str.19 = private unnamed_addr constant [45 x i8] c"%s:%d: claimed unreachable code was reached\0A\00", align 1
@.str.20 = private unnamed_addr constant [127 x i8] c"generated/home/dtcxzyw/WorkSpace/Projects/compilers/llvm-opt-benchmark/bench/graphviz/graphviz/plugin/core/gvrender_core_fig.c\00", align 1
@figColorResolve.top = internal global i32 0, align 4
@figColorResolve.red = internal global [512 x i16] zeroinitializer, align 16
@figColorResolve.green = internal global [512 x i16] zeroinitializer, align 16
@figColorResolve.blue = internal global [512 x i16] zeroinitializer, align 16

; Function Attrs: nounwind uwtable
define internal i32 @figColorResolve(ptr noundef %0, i8 noundef zeroext %1, i8 noundef zeroext %2, i8 noundef zeroext %3) #0 {
  %5 = alloca i32, align 4
  %6 = alloca ptr, align 8
  %7 = alloca i8, align 1
  %8 = alloca i8, align 1
  %9 = alloca i8, align 1
  %10 = alloca i32, align 4
  %11 = alloca i32, align 4
  %12 = alloca i64, align 8
  %13 = alloca i64, align 8
  %14 = alloca i64, align 8
  %15 = alloca i64, align 8
  %16 = alloca i64, align 8
  %17 = alloca i32, align 4
  store ptr %0, ptr %6, align 8, !tbaa !79
  store i8 %1, ptr %7, align 1, !tbaa !37
  store i8 %2, ptr %8, align 1, !tbaa !37
  store i8 %3, ptr %9, align 1, !tbaa !37
  call void @llvm.lifetime.start.p0(i64 4, ptr %10) #14
  call void @llvm.lifetime.start.p0(i64 4, ptr %11) #14
  store i32 -1, ptr %11, align 4, !tbaa !40
  call void @llvm.lifetime.start.p0(i64 8, ptr %12) #14
  call void @llvm.lifetime.start.p0(i64 8, ptr %13) #14
  call void @llvm.lifetime.start.p0(i64 8, ptr %14) #14
  call void @llvm.lifetime.start.p0(i64 8, ptr %15) #14
  call void @llvm.lifetime.start.p0(i64 8, ptr %16) #14
  store i64 195075, ptr %16, align 8, !tbaa !51
  %18 = load ptr, ptr %6, align 8, !tbaa !79
  store i8 0, ptr %18, align 1, !tbaa !65
  store i32 0, ptr %10, align 4, !tbaa !40
  br label %19

19:                                               ; preds = %74, %4
  %20 = load i32, ptr %10, align 4, !tbaa !40
  %21 = load i32, ptr @figColorResolve.top, align 4, !tbaa !40
  %22 = icmp slt i32 %20, %21
  br i1 %22, label %23, label %77

23:                                               ; preds = %19
  %24 = load i32, ptr %10, align 4, !tbaa !40
  %25 = sext i32 %24 to i64
  %26 = getelementptr inbounds [512 x i16], ptr @figColorResolve.red, i64 0, i64 %25
  %27 = load i16, ptr %26, align 2, !tbaa !81
  %28 = sext i16 %27 to i32
  %29 = load i8, ptr %7, align 1, !tbaa !37
  %30 = zext i8 %29 to i32
  %31 = sub nsw i32 %28, %30
  %32 = sext i32 %31 to i64
  store i64 %32, ptr %12, align 8, !tbaa !51
  %33 = load i32, ptr %10, align 4, !tbaa !40
  %34 = sext i32 %33 to i64
  %35 = getelementptr inbounds [512 x i16], ptr @figColorResolve.green, i64 0, i64 %34
  %36 = load i16, ptr %35, align 2, !tbaa !81
  %37 = sext i16 %36 to i32
  %38 = load i8, ptr %8, align 1, !tbaa !37
  %39 = zext i8 %38 to i32
  %40 = sub nsw i32 %37, %39
  %41 = sext i32 %40 to i64
  store i64 %41, ptr %13, align 8, !tbaa !51
  %42 = load i32, ptr %10, align 4, !tbaa !40
  %43 = sext i32 %42 to i64
  %44 = getelementptr inbounds [512 x i16], ptr @figColorResolve.blue, i64 0, i64 %43
  %45 = load i16, ptr %44, align 2, !tbaa !81
  %46 = sext i16 %45 to i32
  %47 = load i8, ptr %9, align 1, !tbaa !37
  %48 = zext i8 %47 to i32
  %49 = sub nsw i32 %46, %48
  %50 = sext i32 %49 to i64
  store i64 %50, ptr %14, align 8, !tbaa !51
  %51 = load i64, ptr %12, align 8, !tbaa !51
  %52 = load i64, ptr %12, align 8, !tbaa !51
  %53 = mul nsw i64 %51, %52
  %54 = load i64, ptr %13, align 8, !tbaa !51
  %55 = load i64, ptr %13, align 8, !tbaa !51
  %56 = mul nsw i64 %54, %55
  %57 = add nsw i64 %53, %56
  %58 = load i64, ptr %14, align 8, !tbaa !51
  %59 = load i64, ptr %14, align 8, !tbaa !51
  %60 = mul nsw i64 %58, %59
  %61 = add nsw i64 %57, %60
  store i64 %61, ptr %15, align 8, !tbaa !51
  %62 = load i64, ptr %15, align 8, !tbaa !51
  %63 = load i64, ptr %16, align 8, !tbaa !51
  %64 = icmp slt i64 %62, %63
  br i1 %64, label %65, label %73

65:                                               ; preds = %23
  %66 = load i64, ptr %15, align 8, !tbaa !51
  %67 = icmp eq i64 %66, 0
  br i1 %67, label %68, label %70

68:                                               ; preds = %65
  %69 = load i32, ptr %10, align 4, !tbaa !40
  store i32 %69, ptr %5, align 4
  store i32 1, ptr %17, align 4
  br label %102

70:                                               ; preds = %65
  %71 = load i64, ptr %15, align 8, !tbaa !51
  store i64 %71, ptr %16, align 8, !tbaa !51
  %72 = load i32, ptr %10, align 4, !tbaa !40
  store i32 %72, ptr %11, align 4, !tbaa !40
  br label %73

73:                                               ; preds = %70, %23
  br label %74

74:                                               ; preds = %73
  %75 = load i32, ptr %10, align 4, !tbaa !40
  %76 = add nsw i32 %75, 1
  store i32 %76, ptr %10, align 4, !tbaa !40
  br label %19, !llvm.loop !83

77:                                               ; preds = %19
  %78 = load i32, ptr @figColorResolve.top, align 4, !tbaa !40
  %79 = icmp eq i32 %78, 512
  br i1 %79, label %80, label %82

80:                                               ; preds = %77
  %81 = load i32, ptr %11, align 4, !tbaa !40
  store i32 %81, ptr %5, align 4
  store i32 1, ptr %17, align 4
  br label %102

82:                                               ; preds = %77
  %83 = load i32, ptr @figColorResolve.top, align 4, !tbaa !40
  %84 = add nsw i32 %83, 1
  store i32 %84, ptr @figColorResolve.top, align 4, !tbaa !40
  %85 = load i8, ptr %7, align 1, !tbaa !37
  %86 = zext i8 %85 to i16
  %87 = load i32, ptr %10, align 4, !tbaa !40
  %88 = sext i32 %87 to i64
  %89 = getelementptr inbounds [512 x i16], ptr @figColorResolve.red, i64 0, i64 %88
  store i16 %86, ptr %89, align 2, !tbaa !81
  %90 = load i8, ptr %8, align 1, !tbaa !37
  %91 = zext i8 %90 to i16
  %92 = load i32, ptr %10, align 4, !tbaa !40
  %93 = sext i32 %92 to i64
  %94 = getelementptr inbounds [512 x i16], ptr @figColorResolve.green, i64 0, i64 %93
  store i16 %91, ptr %94, align 2, !tbaa !81
  %95 = load i8, ptr %9, align 1, !tbaa !37
  %96 = zext i8 %95 to i16
  %97 = load i32, ptr %10, align 4, !tbaa !40
  %98 = sext i32 %97 to i64
  %99 = getelementptr inbounds [512 x i16], ptr @figColorResolve.blue, i64 0, i64 %98
  store i16 %96, ptr %99, align 2, !tbaa !81
  %100 = load ptr, ptr %6, align 8, !tbaa !79
  store i8 1, ptr %100, align 1, !tbaa !65
  %101 = load i32, ptr %10, align 4, !tbaa !40
  store i32 %101, ptr %5, align 4
  store i32 1, ptr %17, align 4
  br label %102

102:                                              ; preds = %82, %80, %68
  call void @llvm.lifetime.end.p0(i64 8, ptr %16) #14
  call void @llvm.lifetime.end.p0(i64 8, ptr %15) #14
  call void @llvm.lifetime.end.p0(i64 8, ptr %14) #14
  call void @llvm.lifetime.end.p0(i64 8, ptr %13) #14
  call void @llvm.lifetime.end.p0(i64 8, ptr %12) #14
  call void @llvm.lifetime.end.p0(i64 4, ptr %11) #14
  call void @llvm.lifetime.end.p0(i64 4, ptr %10) #14
  %103 = load i32, ptr %5, align 4
  ret i32 %103
}

; Function Attrs: inlinehint nounwind uwtable
define internal zeroext i1 @streq(ptr noundef %0, ptr noundef %1) #5 {
  %3 = alloca ptr, align 8
  %4 = alloca ptr, align 8
  store ptr %0, ptr %3, align 8, !tbaa !36
  store ptr %1, ptr %4, align 8, !tbaa !36
  %5 = load ptr, ptr %3, align 8, !tbaa !36
  %6 = load ptr, ptr %4, align 8, !tbaa !36
  %7 = call i32 @strcmp(ptr noundef %5, ptr noundef %6) #15
  %8 = icmp eq i32 %7, 0
  ret i1 %8
}

; Function Attrs: nounwind uwtable
define internal void @fig_resolve_color(ptr noundef %0, ptr noundef %1) #0 {
  %3 = alloca ptr, align 8
  %4 = alloca ptr, align 8
  %5 = alloca i32, align 4
  %6 = alloca i32, align 4
  %7 = alloca i8, align 1
  store ptr %0, ptr %3, align 8, !tbaa !3
  store ptr %1, ptr %4, align 8, !tbaa !59
  call void @llvm.lifetime.start.p0(i64 4, ptr %5) #14
  store i32 0, ptr %5, align 4, !tbaa !40
  call void @llvm.lifetime.start.p0(i64 4, ptr %6) #14
  %8 = load ptr, ptr %4, align 8, !tbaa !59
  %9 = getelementptr inbounds nuw %struct.color_s, ptr %8, i32 0, i32 1
  %10 = load i32, ptr %9, align 8, !tbaa !61
  switch i32 %10, label %76 [
    i32 4, label %11
    i32 1, label %36
  ]

11:                                               ; preds = %2
  store i32 0, ptr %6, align 4, !tbaa !40
  br label %12

12:                                               ; preds = %32, %11
  %13 = load i32, ptr %6, align 4, !tbaa !40
  %14 = sext i32 %13 to i64
  %15 = getelementptr inbounds [9 x ptr], ptr @figcolor, i64 0, i64 %14
  %16 = load ptr, ptr %15, align 8, !tbaa !36
  %17 = icmp ne ptr %16, null
  br i1 %17, label %18, label %35

18:                                               ; preds = %12
  %19 = load i32, ptr %6, align 4, !tbaa !40
  %20 = sext i32 %19 to i64
  %21 = getelementptr inbounds [9 x ptr], ptr @figcolor, i64 0, i64 %20
  %22 = load ptr, ptr %21, align 8, !tbaa !36
  %23 = load ptr, ptr %4, align 8, !tbaa !59
  %24 = getelementptr inbounds nuw %struct.color_s, ptr %23, i32 0, i32 0
  %25 = load ptr, ptr %24, align 8, !tbaa !37
  %26 = call zeroext i1 @streq(ptr noundef %22, ptr noundef %25)
  br i1 %26, label %27, label %31

27:                                               ; preds = %18
  %28 = load i32, ptr %6, align 4, !tbaa !40
  %29 = load ptr, ptr %4, align 8, !tbaa !59
  %30 = getelementptr inbounds nuw %struct.color_s, ptr %29, i32 0, i32 0
  store i32 %28, ptr %30, align 8, !tbaa !37
  br label %35

31:                                               ; preds = %18
  br label %32

32:                                               ; preds = %31
  %33 = load i32, ptr %6, align 4, !tbaa !40
  %34 = add nsw i32 %33, 1
  store i32 %34, ptr %6, align 4, !tbaa !40
  br label %12, !llvm.loop !63

35:                                               ; preds = %27, %12
  br label %82

36:                                               ; preds = %2
  call void @llvm.lifetime.start.p0(i64 1, ptr %7) #14
  %37 = load ptr, ptr %4, align 8, !tbaa !59
  %38 = getelementptr inbounds nuw %struct.color_s, ptr %37, i32 0, i32 0
  %39 = getelementptr inbounds [4 x i8], ptr %38, i64 0, i64 0
  %40 = load i8, ptr %39, align 8, !tbaa !37
  %41 = load ptr, ptr %4, align 8, !tbaa !59
  %42 = getelementptr inbounds nuw %struct.color_s, ptr %41, i32 0, i32 0
  %43 = getelementptr inbounds [4 x i8], ptr %42, i64 0, i64 1
  %44 = load i8, ptr %43, align 1, !tbaa !37
  %45 = load ptr, ptr %4, align 8, !tbaa !59
  %46 = getelementptr inbounds nuw %struct.color_s, ptr %45, i32 0, i32 0
  %47 = getelementptr inbounds [4 x i8], ptr %46, i64 0, i64 2
  %48 = load i8, ptr %47, align 2, !tbaa !37
  %49 = call i32 @figColorResolve(ptr noundef %7, i8 noundef zeroext %40, i8 noundef zeroext %44, i8 noundef zeroext %48)
  %50 = add nsw i32 32, %49
  store i32 %50, ptr %6, align 4, !tbaa !40
  %51 = load i8, ptr %7, align 1, !tbaa !65, !range !66, !noundef !67
  %52 = trunc i8 %51 to i1
  br i1 %52, label %53, label %72

53:                                               ; preds = %36
  %54 = load ptr, ptr %3, align 8, !tbaa !3
  %55 = load i32, ptr %5, align 4, !tbaa !40
  %56 = load i32, ptr %6, align 4, !tbaa !40
  %57 = load ptr, ptr %4, align 8, !tbaa !59
  %58 = getelementptr inbounds nuw %struct.color_s, ptr %57, i32 0, i32 0
  %59 = getelementptr inbounds [4 x i8], ptr %58, i64 0, i64 0
  %60 = load i8, ptr %59, align 8, !tbaa !37
  %61 = zext i8 %60 to i32
  %62 = load ptr, ptr %4, align 8, !tbaa !59
  %63 = getelementptr inbounds nuw %struct.color_s, ptr %62, i32 0, i32 0
  %64 = getelementptr inbounds [4 x i8], ptr %63, i64 0, i64 1
  %65 = load i8, ptr %64, align 1, !tbaa !37
  %66 = zext i8 %65 to i32
  %67 = load ptr, ptr %4, align 8, !tbaa !59
  %68 = getelementptr inbounds nuw %struct.color_s, ptr %67, i32 0, i32 0
  %69 = getelementptr inbounds [4 x i8], ptr %68, i64 0, i64 2
  %70 = load i8, ptr %69, align 2, !tbaa !37
  %71 = zext i8 %70 to i32
  call void (ptr, ptr, ...) @gvprintf(ptr noundef %54, ptr noundef @.str.18, i32 noundef %55, i32 noundef %56, i32 noundef %61, i32 noundef %66, i32 noundef %71)
  br label %72

72:                                               ; preds = %53, %36
  %73 = load i32, ptr %6, align 4, !tbaa !40
  %74 = load ptr, ptr %4, align 8, !tbaa !59
  %75 = getelementptr inbounds nuw %struct.color_s, ptr %74, i32 0, i32 0
  store i32 %73, ptr %75, align 8, !tbaa !37
  call void @llvm.lifetime.end.p0(i64 1, ptr %7) #14
  br label %82

76:                                               ; preds = %2
  br label %77

77:                                               ; preds = %76
  %78 = load ptr, ptr @stderr, align 8, !tbaa !68
  %79 = call i32 (ptr, ptr, ...) @fprintf(ptr noundef %78, ptr noundef @.str.19, ptr noundef @.str.20, i32 noundef 117) #14
  call void @abort() #16
  unreachable

80:                                               ; No predecessors!
  br label %81

81:                                               ; preds = %80
  br label %82

82:                                               ; preds = %81, %72, %35
  %83 = load ptr, ptr %4, align 8, !tbaa !59
  %84 = getelementptr inbounds nuw %struct.color_s, ptr %83, i32 0, i32 1
  store i32 5, ptr %84, align 8, !tbaa !61
  call void @llvm.lifetime.end.p0(i64 4, ptr %6) #14
  call void @llvm.lifetime.end.p0(i64 4, ptr %5) #14
  ret void
}