; Function Attrs: nounwind uwtable
define internal void @fig_resolve_color(ptr noundef %0, ptr noundef captures(none) %1) #0 {
  %3 = getelementptr inbounds nuw i8, ptr %1, i64 32
  %4 = load i32, ptr %3, align 8, !tbaa !51
  switch i32 %4, label %62 [
    i32 4, label %.preheader
    i32 1, label %14
  ]

.preheader:                                       ; preds = %2
  %5 = load ptr, ptr %1, align 8, !tbaa !35
  br label %6

6:                                                ; preds = %.preheader, %13
  %indvars.iv = phi i64 [ 0, %.preheader ], [ %indvars.iv.next, %13 ]
  %7 = getelementptr inbounds nuw [9 x ptr], ptr @figcolor, i64 0, i64 %indvars.iv
  %8 = load ptr, ptr %7, align 8, !tbaa !34
  %9 = tail call i32 @strcmp(ptr noundef nonnull readonly dereferenceable(1) %8, ptr noundef nonnull readonly dereferenceable(1) %5) #19
  %10 = icmp eq i32 %9, 0
  br i1 %10, label %11, label %13

11:                                               ; preds = %6
  %12 = trunc nuw nsw i64 %indvars.iv to i32
  br label %.loopexit.sink.split

13:                                               ; preds = %6
  %indvars.iv.next = add nuw nsw i64 %indvars.iv, 1
  %.not = icmp eq i64 %indvars.iv.next, 8
  br i1 %.not, label %.loopexit, label %6, !llvm.loop !53

14:                                               ; preds = %2
  %15 = load i8, ptr %1, align 8, !tbaa !35
  %16 = getelementptr inbounds nuw i8, ptr %1, i64 1
  %17 = load i8, ptr %16, align 1, !tbaa !35
  %18 = getelementptr inbounds nuw i8, ptr %1, i64 2
  %19 = load i8, ptr %18, align 2, !tbaa !35
  %20 = load i32, ptr @figColorResolve.top, align 4, !tbaa !38
  %21 = icmp sgt i32 %20, 0
  br i1 %21, label %.lr.ph.i, label %._crit_edge

.lr.ph.i:                                         ; preds = %14
  %22 = zext i8 %15 to i64
  %23 = zext i8 %17 to i64
  %24 = zext i8 %19 to i64
  %wide.trip.count.i = zext nneg i32 %20 to i64
  br label %25

25:                                               ; preds = %47, %.lr.ph.i
  %indvars.iv.i = phi i64 [ 0, %.lr.ph.i ], [ %indvars.iv.next.i, %47 ]
  %.041.i = phi i64 [ 195075, %.lr.ph.i ], [ %.1.i, %47 ]
  %.03239.i = phi i32 [ -1, %.lr.ph.i ], [ %.133.i, %47 ]
  %26 = getelementptr inbounds nuw [512 x i16], ptr @figColorResolve.red, i64 0, i64 %indvars.iv.i
  %27 = load i16, ptr %26, align 2, !tbaa !55
  %28 = sext i16 %27 to i64
  %29 = sub nsw i64 %28, %22
  %30 = getelementptr inbounds nuw [512 x i16], ptr @figColorResolve.green, i64 0, i64 %indvars.iv.i
  %31 = load i16, ptr %30, align 2, !tbaa !55
  %32 = sext i16 %31 to i64
  %33 = sub nsw i64 %32, %23
  %34 = getelementptr inbounds nuw [512 x i16], ptr @figColorResolve.blue, i64 0, i64 %indvars.iv.i
  %35 = load i16, ptr %34, align 2, !tbaa !55
  %36 = sext i16 %35 to i64
  %37 = sub nsw i64 %36, %24
  %38 = mul nsw i64 %29, %29
  %39 = mul nsw i64 %33, %33
  %40 = add nuw nsw i64 %39, %38
  %41 = mul nsw i64 %37, %37
  %42 = add nuw nsw i64 %40, %41
  %43 = icmp slt i64 %42, %.041.i
  br i1 %43, label %44, label %47

44:                                               ; preds = %25
  %45 = icmp eq i64 %42, 0
  %46 = trunc nuw nsw i64 %indvars.iv.i to i32
  br i1 %45, label %figColorResolve.exit.thread, label %47

47:                                               ; preds = %44, %25
  %.133.i = phi i32 [ %.03239.i, %25 ], [ %46, %44 ]
  %.1.i = phi i64 [ %.041.i, %25 ], [ %42, %44 ]
  %indvars.iv.next.i = add nuw nsw i64 %indvars.iv.i, 1
  %exitcond.not.i = icmp eq i64 %indvars.iv.next.i, %wide.trip.count.i
  br i1 %exitcond.not.i, label %._crit_edge.i, label %25, !llvm.loop !57

._crit_edge.i:                                    ; preds = %47
  %48 = icmp eq i32 %20, 512
  br i1 %48, label %figColorResolve.exit.thread, label %._crit_edge

figColorResolve.exit.thread:                      ; preds = %44, %._crit_edge.i
  %.030.i.ph = phi i32 [ %.133.i, %._crit_edge.i ], [ %46, %44 ]
  %49 = add nsw i32 %.030.i.ph, 32
  br label %.loopexit.sink.split

._crit_edge:                                      ; preds = %14, %._crit_edge.i
  %.031.lcssa48.i = phi i32 [ %20, %._crit_edge.i ], [ 0, %14 ]
  %50 = add nsw i32 %20, 1
  store i32 %50, ptr @figColorResolve.top, align 4, !tbaa !38
  %51 = zext i8 %15 to i16
  %52 = zext nneg i32 %.031.lcssa48.i to i64
  %53 = getelementptr inbounds nuw [512 x i16], ptr @figColorResolve.red, i64 0, i64 %52
  store i16 %51, ptr %53, align 2, !tbaa !55
  %54 = zext i8 %17 to i16
  %55 = getelementptr inbounds nuw [512 x i16], ptr @figColorResolve.green, i64 0, i64 %52
  store i16 %54, ptr %55, align 2, !tbaa !55
  %56 = zext i8 %19 to i16
  %57 = getelementptr inbounds nuw [512 x i16], ptr @figColorResolve.blue, i64 0, i64 %52
  store i16 %56, ptr %57, align 2, !tbaa !55
  %58 = add nuw nsw i32 %.031.lcssa48.i, 32
  %59 = zext i8 %15 to i32
  %60 = zext i8 %17 to i32
  %61 = zext i8 %19 to i32
  tail call void (ptr, ptr, ...) @gvprintf(ptr noundef %0, ptr noundef nonnull @.str.18, i32 noundef 0, i32 noundef %58, i32 noundef %59, i32 noundef %60, i32 noundef %61) #18
  br label %.loopexit.sink.split

62:                                               ; preds = %2
  %63 = load ptr, ptr @stderr, align 8, !tbaa !58
  %64 = tail call i32 (ptr, ptr, ...) @fprintf(ptr noundef %63, ptr noundef nonnull @.str.19, ptr noundef nonnull @.str.20, i32 noundef 117) #20
  tail call void @abort() #21
  unreachable

.loopexit.sink.split:                             ; preds = %._crit_edge, %figColorResolve.exit.thread, %11
  %.sink = phi i32 [ %12, %11 ], [ %49, %figColorResolve.exit.thread ], [ %58, %._crit_edge ]
  store i32 %.sink, ptr %1, align 8, !tbaa !35
  br label %.loopexit

.loopexit:                                        ; preds = %13, %.loopexit.sink.split
  store i32 5, ptr %3, align 8, !tbaa !51
  ret void
}